target datalayout = "e-m:e-p270:32:32-p271:32:32-p272:64:64-i64:64-i128:128-f80:128-n8:16:32:64-S128"
target triple = "x86_64-pc-linux-gnu"

%struct.Pdr_Set_t_ = type { i64, i32, i32, i32, [0 x i32] }

; Function Attrs: nounwind uwtable
define i32 @Pdr_SetContains(ptr noundef %0, ptr noundef %1) #0 {
  %3 = alloca i32, align 4
  %4 = alloca ptr, align 8
  %5 = alloca ptr, align 8
  %6 = alloca ptr, align 8
  %7 = alloca ptr, align 8
  store ptr %0, ptr %4, align 8
  store ptr %1, ptr %5, align 8
  %8 = load ptr, ptr %4, align 8
  %9 = getelementptr inbounds %struct.Pdr_Set_t_, ptr %8, i32 0, i32 3
  %10 = load i32, ptr %9, align 8
  %11 = load ptr, ptr %5, align 8
  %12 = getelementptr inbounds %struct.Pdr_Set_t_, ptr %11, i32 0, i32 3
  %13 = load i32, ptr %12, align 8
  %14 = icmp slt i32 %10, %13
  br i1 %14, label %15, label %16

15:                                               ; preds = %2
  store i32 0, ptr %3, align 4
  br label %85

16:                                               ; preds = %2
  %17 = load ptr, ptr %4, align 8
  %18 = getelementptr inbounds %struct.Pdr_Set_t_, ptr %17, i32 0, i32 0
  %19 = load i64, ptr %18, align 8
  %20 = load ptr, ptr %5, align 8
  %21 = getelementptr inbounds %struct.Pdr_Set_t_, ptr %20, i32 0, i32 0
  %22 = load i64, ptr %21, align 8
  %23 = and i64 %19, %22
  %24 = load ptr, ptr %5, align 8
  %25 = getelementptr inbounds %struct.Pdr_Set_t_, ptr %24, i32 0, i32 0
  %26 = load i64, ptr %25, align 8
  %27 = icmp ne i64 %23, %26
  br i1 %27, label %28, label %29

28:                                               ; preds = %16
  store i32 0, ptr %3, align 4
  br label %85

29:                                               ; preds = %16
  %30 = load ptr, ptr %4, align 8
  %31 = getelementptr inbounds %struct.Pdr_Set_t_, ptr %30, i32 0, i32 4
  %32 = getelementptr inbounds [0 x i32], ptr %31, i64 0, i64 0
  %33 = load ptr, ptr %4, align 8
  %34 = getelementptr inbounds %struct.Pdr_Set_t_, ptr %33, i32 0, i32 3
  %35 = load i32, ptr %34, align 8
  %36 = sext i32 %35 to i64
  %37 = getelementptr inbounds i32, ptr %32, i64 %36
  %38 = getelementptr inbounds i32, ptr %37, i64 -1
  store ptr %38, ptr %6, align 8
  %39 = load ptr, ptr %5, align 8
  %40 = getelementptr inbounds %struct.Pdr_Set_t_, ptr %39, i32 0, i32 4
  %41 = getelementptr inbounds [0 x i32], ptr %40, i64 0, i64 0
  %42 = load ptr, ptr %5, align 8
  %43 = getelementptr inbounds %struct.Pdr_Set_t_, ptr %42, i32 0, i32 3
  %44 = load i32, ptr %43, align 8
  %45 = sext i32 %44 to i64
  %46 = getelementptr inbounds i32, ptr %41, i64 %45
  %47 = getelementptr inbounds i32, ptr %46, i64 -1
  store ptr %47, ptr %7, align 8
  br label %48

48:                                               ; preds = %83, %29
  %49 = load ptr, ptr %5, align 8
  %50 = getelementptr inbounds %struct.Pdr_Set_t_, ptr %49, i32 0, i32 4
  %51 = getelementptr inbounds [0 x i32], ptr %50, i64 0, i64 0
  %52 = load ptr, ptr %7, align 8
  %53 = icmp ule ptr %51, %52
  br i1 %53, label %54, label %84

54:                                               ; preds = %48
  %55 = load ptr, ptr %4, align 8
  %56 = getelementptr inbounds %struct.Pdr_Set_t_, ptr %55, i32 0, i32 4
  %57 = getelementptr inbounds [0 x i32], ptr %56, i64 0, i64 0
  %58 = load ptr, ptr %6, align 8
  %59 = icmp ugt ptr %57, %58
  br i1 %59, label %60, label %61

60:                                               ; preds = %54
  store i32 0, ptr %3, align 4
  br label %85

61:                                               ; preds = %54
  %62 = load ptr, ptr %7, align 8
  %63 = load i32, ptr %62, align 4
  %64 = load ptr, ptr %6, align 8
  %65 = load i32, ptr %64, align 4
  %66 = icmp eq i32 %63, %65
  br i1 %66, label %67, label %72

67:                                               ; preds = %61
  %68 = load ptr, ptr %7, align 8
  %69 = getelementptr inbounds i32, ptr %68, i32 -1
  store ptr %69, ptr %7, align 8
  %70 = load ptr, ptr %6, align 8
  %71 = getelementptr inbounds i32, ptr %70, i32 -1
  store ptr %71, ptr %6, align 8
  br label %83

72:                                               ; preds = %61
  %73 = load ptr, ptr %7, align 8
  %74 = load i32, ptr %73, align 4
  %75 = load ptr, ptr %6, align 8
  %76 = load i32, ptr %75, align 4
  %77 = icmp slt i32 %74, %76
  br i1 %77, label %78, label %81

78:                                               ; preds = %72
  %79 = load ptr, ptr %6, align 8
  %80 = getelementptr inbounds i32, ptr %79, i32 -1
  store ptr %80, ptr %6, align 8
  br label %82

81:                                               ; preds = %72
  store i32 0, ptr %3, align 4
  br label %85

82:                                               ; preds = %78
  br label %83

83:                                               ; preds = %82, %67
  br label %48, !llvm.loop !22

84:                                               ; preds = %48
  store i32 1, ptr %3, align 4
  br label %85

85:                                               ; preds = %84, %81, %60, %28, %15
  %86 = load i32, ptr %3, align 4
  ret i32 %86
}