; Function Attrs: nofree norecurse nosync nounwind memory(argmem: read) uwtable
define range(i32 0, 2) i32 @Pdr_SetContains(ptr noundef readonly captures(none) %0, ptr noundef readonly captures(none) %1) local_unnamed_addr #11 {
  %3 = getelementptr inbounds nuw i8, ptr %0, i64 16
  %4 = load i32, ptr %3, align 8
  %5 = getelementptr inbounds nuw i8, ptr %1, i64 16
  %6 = load i32, ptr %5, align 8
  %7 = icmp slt i32 %4, %6
  br i1 %7, label %.loopexit, label %8

8:                                                ; preds = %2
  %9 = load i64, ptr %0, align 8
  %10 = load i64, ptr %1, align 8
  %11 = and i64 %10, %9
  %.not = icmp eq i64 %11, %10
  br i1 %.not, label %12, label %.loopexit

12:                                               ; preds = %8
  %.not2741 = icmp slt i32 %6, 1
  br i1 %.not2741, label %.loopexit, label %.lr.ph.preheader

.lr.ph.preheader:                                 ; preds = %12
  %13 = zext nneg i32 %6 to i64
  %.idx = shl nuw nsw i64 %13, 2
  %.add28 = add nuw nsw i64 %.idx, 16
  %14 = sext i32 %4 to i64
  %.idx32 = shl nsw i64 %14, 2
  %.add33 = add nsw i64 %.idx32, 16
  br label %.lr.ph

.lr.ph:                                           ; preds = %.lr.ph.preheader, %23
  %.0.idx43 = phi i64 [ %.1.idx, %23 ], [ %.add28, %.lr.ph.preheader ]
  %.020.idx42 = phi i64 [ %.121.idx, %23 ], [ %.add33, %.lr.ph.preheader ]
  %15 = icmp slt i64 %.020.idx42, 20
  br i1 %15, label %.loopexit, label %16

16:                                               ; preds = %.lr.ph
  %.020.ptr44 = getelementptr inbounds nuw i8, ptr %0, i64 %.020.idx42
  %.0.ptr45 = getelementptr inbounds i8, ptr %1, i64 %.0.idx43
  %17 = load i32, ptr %.0.ptr45, align 4
  %18 = load i32, ptr %.020.ptr44, align 4
  %19 = icmp eq i32 %17, %18
  br i1 %19, label %20, label %21

20:                                               ; preds = %16
  %.0.add = add nsw i64 %.0.idx43, -4
  br label %23

21:                                               ; preds = %16
  %22 = icmp slt i32 %17, %18
  br i1 %22, label %23, label %.loopexit

23:                                               ; preds = %21, %20
  %.1.idx = phi i64 [ %.0.add, %20 ], [ %.0.idx43, %21 ]
  %.121.idx = add nsw i64 %.020.idx42, -4
  %.not27 = icmp slt i64 %.1.idx, 20
  br i1 %.not27, label %.loopexit, label %.lr.ph, !llvm.loop !18

.loopexit:                                        ; preds = %.lr.ph, %21, %23, %12, %8, %2
  %.022 = phi i32 [ 0, %2 ], [ 0, %8 ], [ 1, %12 ], [ 0, %.lr.ph ], [ 0, %21 ], [ 1, %23 ]
  ret i32 %.022
}